target datalayout = "e-m:e-p270:32:32-p271:32:32-p272:64:64-i64:64-i128:128-f80:128-n8:16:32:64-S128"
target triple = "x86_64-pc-linux-gnu"

%class.vector = type { ptr }

; Function Attrs: mustprogress nounwind uwtable
define linkonce_odr hidden noundef ptr @_ZNK6vectorIjLb0EjE4dataEv(ptr noundef nonnull align 8 dereferenceable(8) %0) #5 comdat align 2 {
  %2 = alloca ptr, align 8
  store ptr %0, ptr %2, align 8, !tbaa !149
  %3 = load ptr, ptr %2, align 8
  %4 = getelementptr inbounds nuw %class.vector, ptr %3, i32 0, i32 0
  %5 = load ptr, ptr %4, align 8, !tbaa !151
  ret ptr %5
}

; Function Attrs: mustprogress nounwind uwtable
define linkonce_odr hidden noundef nonnull align 4 dereferenceable(4) ptr @_ZN6vectorIjLb0EjEixEj(ptr noundef nonnull align 8 dereferenceable(8) %0, i32 noundef %1) #5 comdat align 2 {
  %3 = alloca ptr, align 8
  %4 = alloca i32, align 4
  store ptr %0, ptr %3, align 8, !tbaa !149
  store i32 %1, ptr %4, align 4, !tbaa !97
  %5 = load ptr, ptr %3, align 8
  %6 = getelementptr inbounds nuw %class.vector, ptr %5, i32 0, i32 0
  %7 = load ptr, ptr %6, align 8, !tbaa !151
  %8 = load i32, ptr %4, align 4, !tbaa !97
  %9 = zext i32 %8 to i64
  %10 = getelementptr inbounds nuw i32, ptr %7, i64 %9
  ret ptr %10
}

; Function Attrs: mustprogress nounwind uwtable
define linkonce_odr hidden noundef nonnull align 4 dereferenceable(4) ptr @_ZNK6vectorIjLb0EjEixEj(ptr noundef nonnull align 8 dereferenceable(8) %0, i32 noundef %1) #5 comdat align 2 {
  %3 = alloca ptr, align 8
  %4 = alloca i32, align 4
  store ptr %0, ptr %3, align 8, !tbaa !149
  store i32 %1, ptr %4, align 4, !tbaa !97
  %5 = load ptr, ptr %3, align 8
  %6 = getelementptr inbounds nuw %class.vector, ptr %5, i32 0, i32 0
  %7 = load ptr, ptr %6, align 8, !tbaa !151
  %8 = load i32, ptr %4, align 4, !tbaa !97
  %9 = zext i32 %8 to i64
  %10 = getelementptr inbounds nuw i32, ptr %7, i64 %9
  ret ptr %10
}

; Function Attrs: mustprogress uwtable
define hidden void @_ZNK3sls7bv_eval7set_divERKNS_5bvectES3_jRS1_S4_(ptr noundef nonnull align 8 dereferenceable(865) %0, ptr noundef nonnull align 8 dereferenceable(20) %1, ptr noundef nonnull align 8 dereferenceable(20) %2, i32 noundef %3, ptr noundef nonnull align 8 dereferenceable(20) %4, ptr noundef nonnull align 8 dereferenceable(20) %5) #4 align 2 {
  %7 = alloca ptr, align 8
  %8 = alloca ptr, align 8
  %9 = alloca ptr, align 8
  %10 = alloca i32, align 4
  %11 = alloca ptr, align 8
  %12 = alloca ptr, align 8
  %13 = alloca i32, align 4
  %14 = alloca i32, align 4
  %15 = alloca i32, align 4
  %16 = alloca i32, align 4
  store ptr %0, ptr %7, align 8, !tbaa !3
  store ptr %1, ptr %8, align 8, !tbaa !110
  store ptr %2, ptr %9, align 8, !tbaa !110
  store i32 %3, ptr %10, align 4, !tbaa !97
  store ptr %4, ptr %11, align 8, !tbaa !110
  store ptr %5, ptr %12, align 8, !tbaa !110
  %17 = load ptr, ptr %7, align 8
  call void @llvm.lifetime.start.p0(i64 4, ptr %13) #3
  %18 = load i32, ptr %10, align 4, !tbaa !97
  %19 = zext i32 %18 to i64
  %20 = add i64 %19, 32
  %21 = sub i64 %20, 1
  %22 = udiv i64 %21, 32
  %23 = trunc i64 %22 to i32
  store i32 %23, ptr %13, align 4, !tbaa !97
  call void @llvm.lifetime.start.p0(i64 4, ptr %14) #3
  %24 = load i32, ptr %13, align 4, !tbaa !97
  store i32 %24, ptr %14, align 4, !tbaa !97
  br label %25

25:                                               ; preds = %37, %6
  %26 = load i32, ptr %14, align 4, !tbaa !97
  %27 = icmp ugt i32 %26, 1
  br i1 %27, label %28, label %35

28:                                               ; preds = %25
  %29 = load ptr, ptr %9, align 8, !tbaa !110
  %30 = load i32, ptr %14, align 4, !tbaa !97
  %31 = sub i32 %30, 1
  %32 = call noundef nonnull align 4 dereferenceable(4) ptr @_ZNK6vectorIjLb0EjEixEj(ptr noundef nonnull align 8 dereferenceable(8) %29, i32 noundef %31)
  %33 = load i32, ptr %32, align 4, !tbaa !97
  %34 = icmp eq i32 %33, 0
  br label %35

35:                                               ; preds = %28, %25
  %36 = phi i1 [ false, %25 ], [ %34, %28 ]
  br i1 %36, label %37, label %40

37:                                               ; preds = %35
  %38 = load i32, ptr %14, align 4, !tbaa !97
  %39 = add i32 %38, -1
  store i32 %39, ptr %14, align 4, !tbaa !97
  br label %25, !llvm.loop !232

40:                                               ; preds = %35
  %41 = load ptr, ptr %9, align 8, !tbaa !110
  %42 = load i32, ptr %14, align 4, !tbaa !97
  %43 = sub i32 %42, 1
  %44 = call noundef nonnull align 4 dereferenceable(4) ptr @_ZNK6vectorIjLb0EjEixEj(ptr noundef nonnull align 8 dereferenceable(8) %41, i32 noundef %43)
  %45 = load i32, ptr %44, align 4, !tbaa !97
  %46 = icmp eq i32 %45, 0
  br i1 %46, label %47, label %74

47:                                               ; preds = %40
  call void @llvm.lifetime.start.p0(i64 4, ptr %15) #3
  store i32 0, ptr %15, align 4, !tbaa !97
  br label %48

48:                                               ; preds = %60, %47
  %49 = load i32, ptr %15, align 4, !tbaa !97
  %50 = load i32, ptr %13, align 4, !tbaa !97
  %51 = icmp ult i32 %49, %50
  br i1 %51, label %53, label %52

52:                                               ; preds = %48
  call void @llvm.lifetime.end.p0(i64 4, ptr %15) #3
  br label %63

53:                                               ; preds = %48
  %54 = load ptr, ptr %11, align 8, !tbaa !110
  %55 = load i32, ptr %15, align 4, !tbaa !97
  %56 = call noundef nonnull align 4 dereferenceable(4) ptr @_ZN6vectorIjLb0EjEixEj(ptr noundef nonnull align 8 dereferenceable(8) %54, i32 noundef %55)
  store i32 -1, ptr %56, align 4, !tbaa !97
  %57 = load ptr, ptr %12, align 8, !tbaa !110
  %58 = load i32, ptr %15, align 4, !tbaa !97
  %59 = call noundef nonnull align 4 dereferenceable(4) ptr @_ZN6vectorIjLb0EjEixEj(ptr noundef nonnull align 8 dereferenceable(8) %57, i32 noundef %58)
  store i32 0, ptr %59, align 4, !tbaa !97
  br label %60

60:                                               ; preds = %53
  %61 = load i32, ptr %15, align 4, !tbaa !97
  %62 = add i32 %61, 1
  store i32 %62, ptr %15, align 4, !tbaa !97
  br label %48, !llvm.loop !233

63:                                               ; preds = %52
  %64 = load i32, ptr %10, align 4, !tbaa !97
  %65 = zext i32 %64 to i64
  %66 = urem i64 %65, 32
  %67 = trunc i64 %66 to i32
  %68 = shl i32 1, %67
  %69 = sub nsw i32 %68, 1
  %70 = load ptr, ptr %11, align 8, !tbaa !110
  %71 = load i32, ptr %13, align 4, !tbaa !97
  %72 = sub i32 %71, 1
  %73 = call noundef nonnull align 4 dereferenceable(4) ptr @_ZN6vectorIjLb0EjEixEj(ptr noundef nonnull align 8 dereferenceable(8) %70, i32 noundef %72)
  store i32 %69, ptr %73, align 4, !tbaa !97
  br label %103

74:                                               ; preds = %40
  call void @llvm.lifetime.start.p0(i64 4, ptr %16) #3
  store i32 0, ptr %16, align 4, !tbaa !97
  br label %75

75:                                               ; preds = %87, %74
  %76 = load i32, ptr %16, align 4, !tbaa !97
  %77 = load i32, ptr %13, align 4, !tbaa !97
  %78 = icmp ult i32 %76, %77
  br i1 %78, label %80, label %79

79:                                               ; preds = %75
  call void @llvm.lifetime.end.p0(i64 4, ptr %16) #3
  br label %90

80:                                               ; preds = %75
  %81 = load ptr, ptr %11, align 8, !tbaa !110
  %82 = load i32, ptr %16, align 4, !tbaa !97
  %83 = call noundef nonnull align 4 dereferenceable(4) ptr @_ZN6vectorIjLb0EjEixEj(ptr noundef nonnull align 8 dereferenceable(8) %81, i32 noundef %82)
  store i32 0, ptr %83, align 4, !tbaa !97
  %84 = load ptr, ptr %12, align 8, !tbaa !110
  %85 = load i32, ptr %16, align 4, !tbaa !97
  %86 = call noundef nonnull align 4 dereferenceable(4) ptr @_ZN6vectorIjLb0EjEixEj(ptr noundef nonnull align 8 dereferenceable(8) %84, i32 noundef %85)
  store i32 0, ptr %86, align 4, !tbaa !97
  br label %87

87:                                               ; preds = %80
  %88 = load i32, ptr %16, align 4, !tbaa !97
  %89 = add i32 %88, 1
  store i32 %89, ptr %16, align 4, !tbaa !97
  br label %75, !llvm.loop !234

90:                                               ; preds = %79
  %91 = getelementptr inbounds i8, ptr %17, i64 488
  %92 = load ptr, ptr %8, align 8, !tbaa !110
  %93 = call noundef ptr @_ZNK6vectorIjLb0EjE4dataEv(ptr noundef nonnull align 8 dereferenceable(8) %92)
  %94 = load i32, ptr %13, align 4, !tbaa !97
  %95 = load ptr, ptr %9, align 8, !tbaa !110
  %96 = call noundef ptr @_ZNK6vectorIjLb0EjE4dataEv(ptr noundef nonnull align 8 dereferenceable(8) %95)
  %97 = load i32, ptr %14, align 4, !tbaa !97
  %98 = load ptr, ptr %11, align 8, !tbaa !110
  %99 = call noundef ptr @_ZNK6vectorIjLb0EjE4dataEv(ptr noundef nonnull align 8 dereferenceable(8) %98)
  %100 = load ptr, ptr %12, align 8, !tbaa !110
  %101 = call noundef ptr @_ZNK6vectorIjLb0EjE4dataEv(ptr noundef nonnull align 8 dereferenceable(8) %100)
  %102 = call noundef zeroext i1 @_ZN11mpn_manager3divEPKjjS1_jPjS2_(ptr noundef nonnull align 1 dereferenceable(1) %91, ptr noundef %93, i32 noundef %94, ptr noundef %96, i32 noundef %97, ptr noundef %99, ptr noundef %101)
  br label %103

103:                                              ; preds = %90, %63
  call void @llvm.lifetime.end.p0(i64 4, ptr %14) #3
  call void @llvm.lifetime.end.p0(i64 4, ptr %13) #3
  ret void
}