; Function Attrs: mustprogress uwtable
define hidden void @_ZNK3sls7bv_eval7set_divERKNS_5bvectES3_jRS1_S4_(ptr noundef nonnull align 8 dereferenceable(865) %0, ptr noundef nonnull readonly align 8 captures(none) dereferenceable(20) %1, ptr noundef nonnull readonly align 8 captures(none) dereferenceable(20) %2, i32 noundef %3, ptr noundef nonnull readonly align 8 captures(none) dereferenceable(20) %4, ptr noundef nonnull readonly align 8 captures(none) dereferenceable(20) %5) local_unnamed_addr #3 align 2 {
  %7 = zext i32 %3 to i64
  %8 = add nuw nsw i64 %7, 31
  %9 = lshr i64 %8, 5
  %10 = trunc nuw nsw i64 %9 to i32
  %11 = load ptr, ptr %2, align 8
  %12 = icmp ne i32 %3, 0
  %umin = zext i1 %12 to i32
  br label %13

13:                                               ; preds = %15, %6
  %indvars.iv = phi i64 [ %16, %15 ], [ %9, %6 ]
  %14 = icmp ugt i64 %indvars.iv, 1
  br i1 %14, label %15, label %.critedge

15:                                               ; preds = %13
  %16 = add nsw i64 %indvars.iv, -1
  %17 = getelementptr inbounds nuw i32, ptr %11, i64 %16
  %18 = load i32, ptr %17, align 4, !tbaa !102
  %19 = icmp eq i32 %18, 0
  br i1 %19, label %13, label %.critedge.split.loop.exit51, !llvm.loop !215

.critedge.split.loop.exit51:                      ; preds = %15
  %20 = trunc nuw i64 %indvars.iv to i32
  br label %.critedge

.critedge:                                        ; preds = %13, %.critedge.split.loop.exit51
  %.032.lcssa = phi i32 [ %20, %.critedge.split.loop.exit51 ], [ %umin, %13 ]
  %21 = add nsw i32 %.032.lcssa, -1
  %22 = zext i32 %21 to i64
  %23 = getelementptr inbounds nuw i32, ptr %11, i64 %22
  %24 = load i32, ptr %23, align 4, !tbaa !102
  %25 = icmp eq i32 %24, 0
  %.not39 = icmp eq i32 %3, 0
  %.pre50 = load ptr, ptr %4, align 8, !tbaa !97
  br i1 %25, label %.preheader, label %.preheader34

.preheader34:                                     ; preds = %.critedge
  %.pre49 = load ptr, ptr %5, align 8, !tbaa !97
  br i1 %.not39, label %._crit_edge, label %.lr.ph

.preheader:                                       ; preds = %.critedge
  br i1 %.not39, label %._crit_edge38, label %.lr.ph37

.lr.ph37:                                         ; preds = %.preheader
  %26 = load ptr, ptr %5, align 8, !tbaa !97
  br label %32

._crit_edge38:                                    ; preds = %32, %.preheader
  %27 = and i32 %3, 31
  %notmask = shl nsw i32 -1, %27
  %28 = xor i32 %notmask, -1
  %29 = add nuw nsw i64 %9, 4294967295
  %30 = and i64 %29, 4294967295
  %31 = getelementptr inbounds nuw i32, ptr %.pre50, i64 %30
  store i32 %28, ptr %31, align 4, !tbaa !102
  br label %40

32:                                               ; preds = %.lr.ph37, %32
  %indvars.iv44 = phi i64 [ 0, %.lr.ph37 ], [ %indvars.iv.next45, %32 ]
  %33 = getelementptr inbounds nuw i32, ptr %.pre50, i64 %indvars.iv44
  store i32 -1, ptr %33, align 4, !tbaa !102
  %34 = getelementptr inbounds nuw i32, ptr %26, i64 %indvars.iv44
  store i32 0, ptr %34, align 4, !tbaa !102
  %indvars.iv.next45 = add nuw nsw i64 %indvars.iv44, 1
  %exitcond48.not = icmp eq i64 %indvars.iv.next45, %9
  br i1 %exitcond48.not, label %._crit_edge38, label %32, !llvm.loop !216

._crit_edge:                                      ; preds = %.lr.ph, %.preheader34
  %35 = getelementptr inbounds nuw i8, ptr %0, i64 488
  %36 = load ptr, ptr %1, align 8, !tbaa !97
  %37 = tail call noundef zeroext i1 @_ZN11mpn_manager3divEPKjjS1_jPjS2_(ptr noundef nonnull align 1 dereferenceable(1) %35, ptr noundef %36, i32 noundef %10, ptr noundef nonnull %11, i32 noundef %.032.lcssa, ptr noundef %.pre50, ptr noundef %.pre49)
  br label %40

.lr.ph:                                           ; preds = %.preheader34, %.lr.ph
  %indvars.iv41 = phi i64 [ %indvars.iv.next42, %.lr.ph ], [ 0, %.preheader34 ]
  %38 = getelementptr inbounds nuw i32, ptr %.pre50, i64 %indvars.iv41
  store i32 0, ptr %38, align 4, !tbaa !102
  %39 = getelementptr inbounds nuw i32, ptr %.pre49, i64 %indvars.iv41
  store i32 0, ptr %39, align 4, !tbaa !102
  %indvars.iv.next42 = add nuw nsw i64 %indvars.iv41, 1
  %exitcond.not = icmp eq i64 %indvars.iv.next42, %9
  br i1 %exitcond.not, label %._crit_edge, label %.lr.ph, !llvm.loop !217

40:                                               ; preds = %._crit_edge, %._crit_edge38
  ret void
}